target datalayout = "e-m:e-p270:32:32-p271:32:32-p272:64:64-i64:64-i128:128-f80:128-n8:16:32:64-S128"
target triple = "x86_64-pc-linux-gnu"

%"class.ZXing::BitMatrix" = type { i32, i32, %"class.std::vector" }
%"class.std::vector" = type { %"struct.std::_Vector_base" }
%"struct.std::_Vector_base" = type { %"struct.std::_Vector_base<unsigned char, std::allocator<unsigned char>>::_Vector_impl" }
%"struct.std::_Vector_base<unsigned char, std::allocator<unsigned char>>::_Vector_impl" = type { %"struct.std::_Vector_base<unsigned char, std::allocator<unsigned char>>::_Vector_impl_data" }
%"struct.std::_Vector_base<unsigned char, std::allocator<unsigned char>>::_Vector_impl_data" = type { ptr, ptr, ptr }

@.str = private unnamed_addr constant [57 x i8] c"BitMatrix::setRegion(): Left and top must be nonnegative\00", align 1
@_ZTISt16invalid_argument = external constant ptr
@.str.1 = private unnamed_addr constant [60 x i8] c"BitMatrix::setRegion(): Height and width must be at least 1\00", align 1
@.str.2 = private unnamed_addr constant [62 x i8] c"BitMatrix::setRegion(): The region must fit inside the matrix\00", align 1

; Function Attrs: mustprogress nounwind uwtable
define linkonce_odr noundef nonnull align 1 dereferenceable(1) ptr @_ZNSt6vectorIhSaIhEEixEm(ptr noundef nonnull align 8 dereferenceable(24) %0, i64 noundef %1) #4 comdat align 2 {
  %3 = alloca ptr, align 8
  %4 = alloca i64, align 8
  store ptr %0, ptr %3, align 8, !tbaa !22
  store i64 %1, ptr %4, align 8, !tbaa !24
  %5 = load ptr, ptr %3, align 8
  %6 = getelementptr inbounds nuw %"struct.std::_Vector_base", ptr %5, i32 0, i32 0
  %7 = getelementptr inbounds nuw %"struct.std::_Vector_base<unsigned char, std::allocator<unsigned char>>::_Vector_impl_data", ptr %6, i32 0, i32 0
  %8 = load ptr, ptr %7, align 8, !tbaa !26
  %9 = load i64, ptr %4, align 8, !tbaa !24
  %10 = getelementptr inbounds nuw i8, ptr %8, i64 %9
  ret ptr %10
}

; Function Attrs: mustprogress uwtable
define void @_ZN5ZXing9BitMatrix9setRegionEiiii(ptr noundef nonnull align 8 dereferenceable(32) %0, i32 noundef %1, i32 noundef %2, i32 noundef %3, i32 noundef %4) #0 align 2 personality ptr @__gxx_personality_v0 {
  %6 = alloca ptr, align 8
  %7 = alloca i32, align 4
  %8 = alloca i32, align 4
  %9 = alloca i32, align 4
  %10 = alloca i32, align 4
  %11 = alloca ptr, align 8
  %12 = alloca i32, align 4
  %13 = alloca i32, align 4
  %14 = alloca i32, align 4
  %15 = alloca i32, align 4
  %16 = alloca i32, align 4
  %17 = alloca i32, align 4
  %18 = alloca i32, align 4
  store ptr %0, ptr %6, align 8, !tbaa !3
  store i32 %1, ptr %7, align 4, !tbaa !8
  store i32 %2, ptr %8, align 4, !tbaa !8
  store i32 %3, ptr %9, align 4, !tbaa !8
  store i32 %4, ptr %10, align 4, !tbaa !8
  %19 = load ptr, ptr %6, align 8
  %20 = load i32, ptr %8, align 4, !tbaa !8
  %21 = icmp slt i32 %20, 0
  br i1 %21, label %25, label %22

22:                                               ; preds = %5
  %23 = load i32, ptr %7, align 4, !tbaa !8
  %24 = icmp slt i32 %23, 0
  br i1 %24, label %25, label %32

25:                                               ; preds = %22, %5
  %26 = call ptr @__cxa_allocate_exception(i64 16) #16
  invoke void @_ZNSt16invalid_argumentC1EPKc(ptr noundef nonnull align 8 dereferenceable(16) %26, ptr noundef @.str)
          to label %27 unwind label %28

27:                                               ; preds = %25
  call void @__cxa_throw(ptr %26, ptr @_ZTISt16invalid_argument, ptr @_ZNSt16invalid_argumentD1Ev) #17
  unreachable

28:                                               ; preds = %25
  %29 = landingpad { ptr, i32 }
          cleanup
  %30 = extractvalue { ptr, i32 } %29, 0
  store ptr %30, ptr %11, align 8
  %31 = extractvalue { ptr, i32 } %29, 1
  store i32 %31, ptr %12, align 4
  call void @__cxa_free_exception(ptr %26) #16
  br label %101

32:                                               ; preds = %22
  %33 = load i32, ptr %10, align 4, !tbaa !8
  %34 = icmp slt i32 %33, 1
  br i1 %34, label %38, label %35

35:                                               ; preds = %32
  %36 = load i32, ptr %9, align 4, !tbaa !8
  %37 = icmp slt i32 %36, 1
  br i1 %37, label %38, label %45

38:                                               ; preds = %35, %32
  %39 = call ptr @__cxa_allocate_exception(i64 16) #16
  invoke void @_ZNSt16invalid_argumentC1EPKc(ptr noundef nonnull align 8 dereferenceable(16) %39, ptr noundef @.str.1)
          to label %40 unwind label %41

40:                                               ; preds = %38
  call void @__cxa_throw(ptr %39, ptr @_ZTISt16invalid_argument, ptr @_ZNSt16invalid_argumentD1Ev) #17
  unreachable

41:                                               ; preds = %38
  %42 = landingpad { ptr, i32 }
          cleanup
  %43 = extractvalue { ptr, i32 } %42, 0
  store ptr %43, ptr %11, align 8
  %44 = extractvalue { ptr, i32 } %42, 1
  store i32 %44, ptr %12, align 4
  call void @__cxa_free_exception(ptr %39) #16
  br label %101

45:                                               ; preds = %35
  call void @llvm.lifetime.start.p0(i64 4, ptr %13) #16
  %46 = load i32, ptr %7, align 4, !tbaa !8
  %47 = load i32, ptr %9, align 4, !tbaa !8
  %48 = add nsw i32 %46, %47
  store i32 %48, ptr %13, align 4, !tbaa !8
  call void @llvm.lifetime.start.p0(i64 4, ptr %14) #16
  %49 = load i32, ptr %8, align 4, !tbaa !8
  %50 = load i32, ptr %10, align 4, !tbaa !8
  %51 = add nsw i32 %49, %50
  store i32 %51, ptr %14, align 4, !tbaa !8
  %52 = load i32, ptr %14, align 4, !tbaa !8
  %53 = getelementptr inbounds nuw %"class.ZXing::BitMatrix", ptr %19, i32 0, i32 1
  %54 = load i32, ptr %53, align 4, !tbaa !10
  %55 = icmp sgt i32 %52, %54
  br i1 %55, label %61, label %56

56:                                               ; preds = %45
  %57 = load i32, ptr %13, align 4, !tbaa !8
  %58 = getelementptr inbounds nuw %"class.ZXing::BitMatrix", ptr %19, i32 0, i32 0
  %59 = load i32, ptr %58, align 8, !tbaa !17
  %60 = icmp sgt i32 %57, %59
  br i1 %60, label %61, label %68

61:                                               ; preds = %56, %45
  %62 = call ptr @__cxa_allocate_exception(i64 16) #16
  invoke void @_ZNSt16invalid_argumentC1EPKc(ptr noundef nonnull align 8 dereferenceable(16) %62, ptr noundef @.str.2)
          to label %63 unwind label %64

63:                                               ; preds = %61
  call void @__cxa_throw(ptr %62, ptr @_ZTISt16invalid_argument, ptr @_ZNSt16invalid_argumentD1Ev) #17
  unreachable

64:                                               ; preds = %61
  %65 = landingpad { ptr, i32 }
          cleanup
  %66 = extractvalue { ptr, i32 } %65, 0
  store ptr %66, ptr %11, align 8
  %67 = extractvalue { ptr, i32 } %65, 1
  store i32 %67, ptr %12, align 4
  call void @__cxa_free_exception(ptr %62) #16
  call void @llvm.lifetime.end.p0(i64 4, ptr %14) #16
  call void @llvm.lifetime.end.p0(i64 4, ptr %13) #16
  br label %101

68:                                               ; preds = %56
  call void @llvm.lifetime.start.p0(i64 4, ptr %15) #16
  %69 = load i32, ptr %8, align 4, !tbaa !8
  store i32 %69, ptr %15, align 4, !tbaa !8
  br label %70

70:                                               ; preds = %97, %68
  %71 = load i32, ptr %15, align 4, !tbaa !8
  %72 = load i32, ptr %14, align 4, !tbaa !8
  %73 = icmp slt i32 %71, %72
  br i1 %73, label %75, label %74

74:                                               ; preds = %70
  store i32 2, ptr %16, align 4
  call void @llvm.lifetime.end.p0(i64 4, ptr %15) #16
  br label %100

75:                                               ; preds = %70
  call void @llvm.lifetime.start.p0(i64 4, ptr %17) #16
  %76 = load i32, ptr %15, align 4, !tbaa !8
  %77 = getelementptr inbounds nuw %"class.ZXing::BitMatrix", ptr %19, i32 0, i32 0
  %78 = load i32, ptr %77, align 8, !tbaa !17
  %79 = mul nsw i32 %76, %78
  store i32 %79, ptr %17, align 4, !tbaa !8
  call void @llvm.lifetime.start.p0(i64 4, ptr %18) #16
  %80 = load i32, ptr %7, align 4, !tbaa !8
  store i32 %80, ptr %18, align 4, !tbaa !8
  br label %81

81:                                               ; preds = %93, %75
  %82 = load i32, ptr %18, align 4, !tbaa !8
  %83 = load i32, ptr %13, align 4, !tbaa !8
  %84 = icmp slt i32 %82, %83
  br i1 %84, label %86, label %85

85:                                               ; preds = %81
  store i32 5, ptr %16, align 4
  call void @llvm.lifetime.end.p0(i64 4, ptr %18) #16
  br label %96

86:                                               ; preds = %81
  %87 = getelementptr inbounds nuw %"class.ZXing::BitMatrix", ptr %19, i32 0, i32 2
  %88 = load i32, ptr %17, align 4, !tbaa !8
  %89 = load i32, ptr %18, align 4, !tbaa !8
  %90 = add nsw i32 %88, %89
  %91 = sext i32 %90 to i64
  %92 = call noundef nonnull align 1 dereferenceable(1) ptr @_ZNSt6vectorIhSaIhEEixEm(ptr noundef nonnull align 8 dereferenceable(24) %87, i64 noundef %91) #16
  store i8 -1, ptr %92, align 1, !tbaa !18
  br label %93

93:                                               ; preds = %86
  %94 = load i32, ptr %18, align 4, !tbaa !8
  %95 = add nsw i32 %94, 1
  store i32 %95, ptr %18, align 4, !tbaa !8
  br label %81, !llvm.loop !19

96:                                               ; preds = %85
  call void @llvm.lifetime.end.p0(i64 4, ptr %17) #16
  br label %97

97:                                               ; preds = %96
  %98 = load i32, ptr %15, align 4, !tbaa !8
  %99 = add nsw i32 %98, 1
  store i32 %99, ptr %15, align 4, !tbaa !8
  br label %70, !llvm.loop !21

100:                                              ; preds = %74
  call void @llvm.lifetime.end.p0(i64 4, ptr %14) #16
  call void @llvm.lifetime.end.p0(i64 4, ptr %13) #16
  ret void

101:                                              ; preds = %64, %41, %28
  %102 = load ptr, ptr %11, align 8
  %103 = load i32, ptr %12, align 4
  %104 = insertvalue { ptr, i32 } poison, ptr %102, 0
  %105 = insertvalue { ptr, i32 } %104, i32 %103, 1
  resume { ptr, i32 } %105
}