; Function Attrs: mustprogress uwtable
define void @_ZN5ZXing9BitMatrix9setRegionEiiii(ptr noundef nonnull readonly align 8 captures(none) dereferenceable(32) %0, i32 noundef %1, i32 noundef %2, i32 noundef %3, i32 noundef %4) local_unnamed_addr #0 align 2 personality ptr @__gxx_personality_v0 {
  %6 = or i32 %2, %1
  %or.cond.not = icmp sgt i32 %6, -1
  br i1 %or.cond.not, label %12, label %7

7:                                                ; preds = %5
  %8 = tail call ptr @__cxa_allocate_exception(i64 16) #16
  invoke void @_ZNSt16invalid_argumentC1EPKc(ptr noundef nonnull align 8 dereferenceable(16) %8, ptr noundef nonnull @.str)
          to label %9 unwind label %10

9:                                                ; preds = %7
  tail call void @__cxa_throw(ptr nonnull %8, ptr nonnull @_ZTISt16invalid_argument, ptr nonnull @_ZNSt16invalid_argumentD1Ev) #17
  unreachable

10:                                               ; preds = %7
  %11 = landingpad { ptr, i32 }
          cleanup
  br label %46

12:                                               ; preds = %5
  %13 = icmp slt i32 %4, 1
  %14 = icmp slt i32 %3, 1
  %or.cond3 = or i1 %14, %13
  br i1 %or.cond3, label %15, label %20

15:                                               ; preds = %12
  %16 = tail call ptr @__cxa_allocate_exception(i64 16) #16
  invoke void @_ZNSt16invalid_argumentC1EPKc(ptr noundef nonnull align 8 dereferenceable(16) %16, ptr noundef nonnull @.str.1)
          to label %17 unwind label %18

17:                                               ; preds = %15
  tail call void @__cxa_throw(ptr nonnull %16, ptr nonnull @_ZTISt16invalid_argument, ptr nonnull @_ZNSt16invalid_argumentD1Ev) #17
  unreachable

18:                                               ; preds = %15
  %19 = landingpad { ptr, i32 }
          cleanup
  br label %46

20:                                               ; preds = %12
  %21 = add nuw nsw i32 %3, %1
  %22 = add nuw nsw i32 %4, %2
  %23 = getelementptr inbounds nuw i8, ptr %0, i64 4
  %24 = load i32, ptr %23, align 4, !tbaa !3
  %25 = icmp sgt i32 %22, %24
  %26 = load i32, ptr %0, align 8
  %27 = icmp sgt i32 %21, %26
  %or.cond = select i1 %25, i1 true, i1 %27
  br i1 %or.cond, label %41, label %.lr.ph.us.preheader

.lr.ph.us.preheader:                              ; preds = %20
  %28 = getelementptr inbounds nuw i8, ptr %0, i64 8
  %29 = sext i32 %1 to i64
  %30 = sext i32 %21 to i64
  br label %.lr.ph.us

.lr.ph.us:                                        ; preds = %.lr.ph.us.preheader, %._crit_edge.us
  %.02738.us = phi i32 [ %39, %._crit_edge.us ], [ %2, %.lr.ph.us.preheader ]
  %31 = load i32, ptr %0, align 8, !tbaa !14
  %32 = mul nsw i32 %31, %.02738.us
  %33 = sext i32 %32 to i64
  br label %34

34:                                               ; preds = %.lr.ph.us, %34
  %indvars.iv = phi i64 [ %29, %.lr.ph.us ], [ %indvars.iv.next, %34 ]
  %35 = load ptr, ptr %28, align 8, !tbaa !15
  %36 = getelementptr i8, ptr %35, i64 %indvars.iv
  %37 = getelementptr i8, ptr %36, i64 %33
  store i8 -1, ptr %37, align 1, !tbaa !16
  %indvars.iv.next = add nuw nsw i64 %indvars.iv, 1
  %38 = icmp slt i64 %indvars.iv.next, %30
  br i1 %38, label %34, label %._crit_edge.us, !llvm.loop !17

._crit_edge.us:                                   ; preds = %34
  %39 = add nuw nsw i32 %.02738.us, 1
  %40 = icmp slt i32 %39, %22
  br i1 %40, label %.lr.ph.us, label %._crit_edge40, !llvm.loop !19

41:                                               ; preds = %20
  %42 = tail call ptr @__cxa_allocate_exception(i64 16) #16
  invoke void @_ZNSt16invalid_argumentC1EPKc(ptr noundef nonnull align 8 dereferenceable(16) %42, ptr noundef nonnull @.str.2)
          to label %43 unwind label %44

43:                                               ; preds = %41
  tail call void @__cxa_throw(ptr nonnull %42, ptr nonnull @_ZTISt16invalid_argument, ptr nonnull @_ZNSt16invalid_argumentD1Ev) #17
  unreachable

44:                                               ; preds = %41
  %45 = landingpad { ptr, i32 }
          cleanup
  br label %46

._crit_edge40:                                    ; preds = %._crit_edge.us
  ret void

46:                                               ; preds = %44, %18, %10
  %.sink = phi ptr [ %42, %44 ], [ %16, %18 ], [ %8, %10 ]
  %.pn = phi { ptr, i32 } [ %45, %44 ], [ %19, %18 ], [ %11, %10 ]
  tail call void @__cxa_free_exception(ptr nonnull %.sink) #16
  resume { ptr, i32 } %.pn
}